target datalayout = "e-m:e-p270:32:32-p271:32:32-p272:64:64-i64:64-i128:128-f80:128-n8:16:32:64-S128"
target triple = "x86_64-pc-linux-gnu"

%struct._php_stream = type { ptr, ptr, %struct._php_stream_filter_chain, %struct._php_stream_filter_chain, ptr, ptr, %struct._zval_struct, i16, [16 x i8], i32, ptr, ptr, ptr, ptr, i64, ptr, i64, i64, i64, i64, ptr }
%struct._php_stream_filter_chain = type { ptr, ptr, ptr }
%struct._zval_struct = type { %union._zend_value, %union.anon, %union.anon.2 }
%union._zend_value = type { i64 }
%union.anon = type { i32 }
%union.anon.2 = type { i32 }
%struct._php_netstream_data_t = type { i32, i8, %struct.timeval, i8, i64 }
%struct.timeval = type { i64, i64 }

; Function Attrs: nounwind uwtable
define internal i32 @php_sockop_close(ptr noundef %0, i32 noundef %1) #0 {
  %3 = alloca i32, align 4
  %4 = alloca ptr, align 8
  %5 = alloca i32, align 4
  %6 = alloca ptr, align 8
  %7 = alloca i32, align 4
  store ptr %0, ptr %4, align 8, !tbaa !4
  store i32 %1, ptr %5, align 4, !tbaa !33
  call void @llvm.lifetime.start.p0(i64 8, ptr %6) #12
  %8 = load ptr, ptr %4, align 8, !tbaa !4
  %9 = getelementptr inbounds nuw %struct._php_stream, ptr %8, i32 0, i32 1
  %10 = load ptr, ptr %9, align 8, !tbaa !13
  store ptr %10, ptr %6, align 8, !tbaa !24
  %11 = load ptr, ptr %6, align 8, !tbaa !24
  %12 = icmp ne ptr %11, null
  br i1 %12, label %14, label %13

13:                                               ; preds = %2
  store i32 0, ptr %3, align 4
  store i32 1, ptr %7, align 4
  br label %42

14:                                               ; preds = %2
  %15 = load i32, ptr %5, align 4, !tbaa !33
  %16 = icmp ne i32 %15, 0
  br i1 %16, label %17, label %30

17:                                               ; preds = %14
  %18 = load ptr, ptr %6, align 8, !tbaa !24
  %19 = getelementptr inbounds nuw %struct._php_netstream_data_t, ptr %18, i32 0, i32 0
  %20 = load i32, ptr %19, align 8, !tbaa !26
  %21 = icmp ne i32 %20, -1
  br i1 %21, label %22, label %29

22:                                               ; preds = %17
  %23 = load ptr, ptr %6, align 8, !tbaa !24
  %24 = getelementptr inbounds nuw %struct._php_netstream_data_t, ptr %23, i32 0, i32 0
  %25 = load i32, ptr %24, align 8, !tbaa !26
  %26 = call i32 @close(i32 noundef %25)
  %27 = load ptr, ptr %6, align 8, !tbaa !24
  %28 = getelementptr inbounds nuw %struct._php_netstream_data_t, ptr %27, i32 0, i32 0
  store i32 -1, ptr %28, align 8, !tbaa !26
  br label %29

29:                                               ; preds = %22, %17
  br label %30

30:                                               ; preds = %29, %14
  %31 = load ptr, ptr %4, align 8, !tbaa !4
  %32 = getelementptr inbounds nuw %struct._php_stream, ptr %31, i32 0, i32 7
  %33 = load i16, ptr %32, align 8
  %34 = and i16 %33, 1
  %35 = zext i16 %34 to i32
  %36 = icmp ne i32 %35, 0
  br i1 %36, label %37, label %39

37:                                               ; preds = %30
  %38 = load ptr, ptr %6, align 8, !tbaa !24
  call void @free(ptr noundef %38) #12
  br label %41

39:                                               ; preds = %30
  %40 = load ptr, ptr %6, align 8, !tbaa !24
  call void @_efree(ptr noundef %40)
  br label %41

41:                                               ; preds = %39, %37
  store i32 0, ptr %3, align 4
  store i32 1, ptr %7, align 4
  br label %42

42:                                               ; preds = %41, %13
  call void @llvm.lifetime.end.p0(i64 8, ptr %6) #12
  %43 = load i32, ptr %3, align 4
  ret i32 %43
}