; Function Attrs: nounwind uwtable
define internal noundef i32 @php_sockop_close(ptr noundef readonly captures(none) %0, i32 noundef %1) #0 {
  %3 = getelementptr inbounds nuw i8, ptr %0, i64 8
  %4 = load ptr, ptr %3, align 8, !tbaa !4
  %.not = icmp eq ptr %4, null
  br i1 %.not, label %16, label %5

5:                                                ; preds = %2
  %.not10 = icmp eq i32 %1, 0
  br i1 %.not10, label %10, label %6

6:                                                ; preds = %5
  %7 = load i32, ptr %4, align 8, !tbaa !21
  %.not11 = icmp eq i32 %7, -1
  br i1 %.not11, label %10, label %8

8:                                                ; preds = %6
  %9 = tail call i32 @close(i32 noundef %7) #15
  store i32 -1, ptr %4, align 8, !tbaa !21
  br label %10

10:                                               ; preds = %6, %8, %5
  %11 = getelementptr inbounds nuw i8, ptr %0, i64 96
  %12 = load i16, ptr %11, align 8
  %13 = and i16 %12, 1
  %.not12 = icmp eq i16 %13, 0
  br i1 %.not12, label %15, label %14

14:                                               ; preds = %10
  tail call void @free(ptr noundef nonnull %4) #15
  br label %16

15:                                               ; preds = %10
  tail call void @_efree(ptr noundef nonnull %4) #15
  br label %16

16:                                               ; preds = %14, %15, %2
  ret i32 0
}